target datalayout = "e-m:e-p270:32:32-p271:32:32-p272:64:64-i64:64-i128:128-f80:128-n8:16:32:64-S128"
target triple = "x86_64-pc-linux-gnu"

%struct.GenContext_ = type { i8, ptr, ptr, ptr, ptr, ptr, ptr, ptr, ptr, ptr, ptr, ptr, ptr, ptr, ptr, ptr, ptr, ptr, ptr, ptr, ptr, ptr, ptr, ptr, ptr, ptr, ptr, ptr, ptr, ptr, ptr, ptr, ptr, %struct.anon.85, i32, i32, %struct.DebugContext, ptr, ptr, ptr, %struct.BEValue, i8, %union.SourceSpan, ptr, ptr, ptr, ptr }
%struct.anon.85 = type { ptr, ptr, ptr }
%struct.DebugContext = type { i16, ptr, ptr, %struct.DebugFile_, ptr, ptr, ptr, ptr }
%struct.DebugFile_ = type { i16, ptr }
%struct.BEValue = type { i8, i32, ptr, ptr, ptr }
%union.SourceSpan = type { i64 }
%struct.Type_ = type { i32, ptr, ptr, ptr, %union.anon.90, ptr, ptr, %union.anon.92 }
%union.anon.90 = type { ptr }
%union.anon.92 = type { %struct.TypeFunction }
%struct.TypeFunction = type { ptr, ptr, ptr }

@.str.6 = private unnamed_addr constant [7 x i8] c"typeid\00", align 1
@type_voidptr = external global ptr, align 8

; Function Attrs: nounwind uwtable
define internal ptr @llvm_debug_typeid_type(ptr noundef %0, ptr noundef %1) #0 {
  %3 = alloca ptr, align 8
  %4 = alloca ptr, align 8
  %5 = alloca ptr, align 8
  store ptr %0, ptr %4, align 8
  store ptr %1, ptr %5, align 8
  %6 = load ptr, ptr %4, align 8
  %7 = getelementptr inbounds %struct.GenContext_, ptr %6, i32 0, i32 36
  %8 = getelementptr inbounds %struct.DebugContext, ptr %7, i32 0, i32 1
  %9 = load ptr, ptr %8, align 8
  %10 = load ptr, ptr @type_voidptr, align 8
  store ptr %10, ptr %3, align 8
  %11 = load ptr, ptr %3, align 8
  %12 = call i32 @type_size(ptr noundef %11) #7
  %13 = mul i32 %12, 8
  %14 = zext i32 %13 to i64
  %15 = call ptr @LLVMDIBuilderCreateBasicType(ptr noundef %9, ptr noundef @.str.6, i64 noundef 6, i64 noundef %14, i32 noundef 1, i32 noundef 0)
  %16 = load ptr, ptr %5, align 8
  %17 = getelementptr inbounds %struct.Type_, ptr %16, i32 0, i32 6
  store ptr %15, ptr %17, align 8
  ret ptr %15
}