; Function Attrs: nounwind uwtable
define internal fastcc ptr @llvm_debug_typeid_type(ptr %.304.val, ptr nocapture noundef writeonly %0) unnamed_addr #0 {
  %2 = load ptr, ptr @type_voidptr, align 8
  %3 = tail call i32 @type_size(ptr noundef %2) #8
  %4 = shl i32 %3, 3
  %5 = zext i32 %4 to i64
  %6 = tail call ptr @LLVMDIBuilderCreateBasicType(ptr noundef %.304.val, ptr noundef nonnull @.str.6, i64 noundef 6, i64 noundef %5, i32 noundef 1, i32 noundef 0) #8
  %7 = getelementptr inbounds i8, ptr %0, i64 48
  store ptr %6, ptr %7, align 8
  ret ptr %6
}